target datalayout = "e-m:e-p270:32:32-p271:32:32-p272:64:64-i64:64-i128:128-f80:128-n8:16:32:64-S128"
target triple = "x86_64-pc-linux-gnu"

%"class.gmx::SelectionTreeElement" = type { i32, %struct.gmx_ana_selvalue_t, ptr, i32, %union.anon.0, ptr, ptr, %"class.std::shared_ptr", %"class.std::shared_ptr", %"class.std::__cxx11::basic_string", %"struct.gmx::SelectionLocation" }
%struct.gmx_ana_selvalue_t = type { i32, i32, %union.anon, i32 }
%union.anon = type { ptr }
%union.anon.0 = type { %struct.anon }
%struct.anon = type { ptr, ptr, ptr, ptr }
%"class.std::shared_ptr" = type { %"class.std::__shared_ptr" }
%"class.std::__shared_ptr" = type { ptr, %"class.std::__shared_count" }
%"class.std::__shared_count" = type { ptr }
%"class.std::__cxx11::basic_string" = type { %"struct.std::__cxx11::basic_string<char>::_Alloc_hider", i64, %union.anon.2 }
%"struct.std::__cxx11::basic_string<char>::_Alloc_hider" = type { ptr }
%union.anon.2 = type { i64, [8 x i8] }
%"struct.gmx::SelectionLocation" = type { i32, i32 }
%"class.gmx::InconsistentInputError" = type { %"class.gmx::UserInputError" }
%"class.gmx::UserInputError" = type { %"class.gmx::GromacsException" }
%"class.gmx::GromacsException" = type { %"class.std::exception", %"class.std::shared_ptr.10" }
%"class.std::exception" = type { ptr }
%"class.std::shared_ptr.10" = type { %"class.std::__shared_ptr.11" }
%"class.std::__shared_ptr.11" = type { ptr, %"class.std::__shared_count" }
%"class.gmx::ExceptionInitializer" = type { %"class.std::__cxx11::basic_string", %"class.std::vector" }
%"class.std::vector" = type { %"struct.std::_Vector_base" }
%"struct.std::_Vector_base" = type { %"struct.std::_Vector_base<std::__exception_ptr::exception_ptr, std::allocator<std::__exception_ptr::exception_ptr>>::_Vector_impl" }
%"struct.std::_Vector_base<std::__exception_ptr::exception_ptr, std::allocator<std::__exception_ptr::exception_ptr>>::_Vector_impl" = type { %"struct.std::_Vector_base<std::__exception_ptr::exception_ptr, std::allocator<std::__exception_ptr::exception_ptr>>::_Vector_impl_data" }
%"struct.std::_Vector_base<std::__exception_ptr::exception_ptr, std::allocator<std::__exception_ptr::exception_ptr>>::_Vector_impl_data" = type { ptr, ptr, ptr }
%"class.gmx::ExceptionInfo" = type { %"class.gmx::internal::IExceptionInfo", %"struct.gmx::ThrowLocation" }
%"class.gmx::internal::IExceptionInfo" = type { ptr }
%"struct.gmx::ThrowLocation" = type <{ ptr, ptr, i32, [4 x i8] }>
%class.anon.23 = type { i8 }

@.str.20 = private unnamed_addr constant [127 x i8] c"generated/home/dtcxzyw/WorkSpace/Projects/compilers/llvm-opt-benchmark/bench/gromacs/gromacs/src/gromacs/selection/selelem.cpp\00", align 1
@_ZTIN3gmx22InconsistentInputErrorE = external constant ptr
@_ZTVN3gmx22InconsistentInputErrorE = external unnamed_addr constant { [6 x ptr] }, align 8
@_ZTVN3gmx14UserInputErrorE = linkonce_odr unnamed_addr constant { [6 x ptr] } { [6 x ptr] [ptr null, ptr @_ZTIN3gmx14UserInputErrorE, ptr @_ZN3gmx14UserInputErrorD2Ev, ptr @_ZN3gmx14UserInputErrorD0Ev, ptr @_ZNK3gmx16GromacsException4whatEv, ptr @__cxa_pure_virtual] }, comdat, align 8
@_ZTVN3gmx8internal14IExceptionInfoE = external unnamed_addr constant { [4 x ptr] }, align 8
@.str.36 = private unnamed_addr constant [155 x i8] c"Group '%s' cannot be used in selections, because it contains negative atom indices and/or references atoms not present (largest allowed atom index is %d).\00", align 1
@__PRETTY_FUNCTION__._ZN3gmx20SelectionTreeElement15checkIndexGroupEi = private unnamed_addr constant [53 x i8] c"void gmx::SelectionTreeElement::checkIndexGroup(int)\00", align 1
@.str.37 = private unnamed_addr constant [43 x i8] c"type == SEL_CONST && v.type == GROUP_VALUE\00", align 1
@.str.38 = private unnamed_addr constant [47 x i8] c"Should only be called for index group elements\00", align 1
@"__PRETTY_FUNCTION__._ZZN3gmx20SelectionTreeElement15checkIndexGroupEiENK3$_0clEv" = private unnamed_addr constant [92 x i8] c"auto gmx::SelectionTreeElement::checkIndexGroup(int)::(anonymous class)::operator()() const\00", align 1

; Function Attrs: mustprogress nounwind uwtable
define linkonce_odr void @_ZNSt15__new_allocatorINSt15__exception_ptr13exception_ptrEEC2Ev(ptr noundef nonnull align 1 dereferenceable(1) %0) unnamed_addr #0 comdat align 2 {
  %2 = alloca ptr, align 8
  store ptr %0, ptr %2, align 8
  ret void
}

; Function Attrs: mustprogress nounwind uwtable
define linkonce_odr void @_ZNSt12_Vector_baseINSt15__exception_ptr13exception_ptrESaIS1_EE17_Vector_impl_dataC2Ev(ptr noundef nonnull align 8 dereferenceable(24) %0) unnamed_addr #0 comdat align 2 {
  %2 = alloca ptr, align 8
  store ptr %0, ptr %2, align 8
  %3 = load ptr, ptr %2, align 8
  %4 = getelementptr inbounds %"struct.std::_Vector_base<std::__exception_ptr::exception_ptr, std::allocator<std::__exception_ptr::exception_ptr>>::_Vector_impl_data", ptr %3, i32 0, i32 0
  store ptr null, ptr %4, align 8
  %5 = getelementptr inbounds %"struct.std::_Vector_base<std::__exception_ptr::exception_ptr, std::allocator<std::__exception_ptr::exception_ptr>>::_Vector_impl_data", ptr %3, i32 0, i32 1
  store ptr null, ptr %5, align 8
  %6 = getelementptr inbounds %"struct.std::_Vector_base<std::__exception_ptr::exception_ptr, std::allocator<std::__exception_ptr::exception_ptr>>::_Vector_impl_data", ptr %3, i32 0, i32 2
  store ptr null, ptr %6, align 8
  ret void
}

; Function Attrs: mustprogress nounwind uwtable
define linkonce_odr void @_ZNSaINSt15__exception_ptr13exception_ptrEEC2Ev(ptr noundef nonnull align 1 dereferenceable(1) %0) unnamed_addr #0 comdat align 2 {
  %2 = alloca ptr, align 8
  store ptr %0, ptr %2, align 8
  %3 = load ptr, ptr %2, align 8
  call void @_ZNSt15__new_allocatorINSt15__exception_ptr13exception_ptrEEC2Ev(ptr noundef nonnull align 1 dereferenceable(1) %3) #11
  ret void
}

; Function Attrs: mustprogress nounwind uwtable
define linkonce_odr void @_ZNSt12_Vector_baseINSt15__exception_ptr13exception_ptrESaIS1_EE12_Vector_implC2Ev(ptr noundef nonnull align 8 dereferenceable(24) %0) unnamed_addr #0 comdat align 2 {
  %2 = alloca ptr, align 8
  store ptr %0, ptr %2, align 8
  %3 = load ptr, ptr %2, align 8
  call void @_ZNSaINSt15__exception_ptr13exception_ptrEEC2Ev(ptr noundef nonnull align 1 dereferenceable(1) %3) #11
  call void @_ZNSt12_Vector_baseINSt15__exception_ptr13exception_ptrESaIS1_EE17_Vector_impl_dataC2Ev(ptr noundef nonnull align 8 dereferenceable(24) %3) #11
  ret void
}

; Function Attrs: mustprogress nounwind uwtable
define linkonce_odr void @_ZNSt12_Vector_baseINSt15__exception_ptr13exception_ptrESaIS1_EEC2Ev(ptr noundef nonnull align 8 dereferenceable(24) %0) unnamed_addr #0 comdat align 2 {
  %2 = alloca ptr, align 8
  store ptr %0, ptr %2, align 8
  %3 = load ptr, ptr %2, align 8
  %4 = getelementptr inbounds %"struct.std::_Vector_base", ptr %3, i32 0, i32 0
  call void @_ZNSt12_Vector_baseINSt15__exception_ptr13exception_ptrESaIS1_EE12_Vector_implC2Ev(ptr noundef nonnull align 8 dereferenceable(24) %4) #11
  ret void
}

; Function Attrs: mustprogress nounwind uwtable
define linkonce_odr void @_ZN3gmx8internal14IExceptionInfoC2Ev(ptr noundef nonnull align 8 dereferenceable(8) %0) unnamed_addr #0 comdat align 2 {
  %2 = alloca ptr, align 8
  store ptr %0, ptr %2, align 8
  %3 = load ptr, ptr %2, align 8
  store ptr getelementptr inbounds inrange(-16, 16) ({ [4 x ptr] }, ptr @_ZTVN3gmx8internal14IExceptionInfoE, i32 0, i32 0, i32 2), ptr %3, align 8
  ret void
}

; Function Attrs: mustprogress uwtable
define linkonce_odr void @_ZN3gmx14UserInputErrorC2ERKNS_20ExceptionInitializerE(ptr noundef nonnull align 8 dereferenceable(24) %0, ptr noundef nonnull align 8 dereferenceable(56) %1) unnamed_addr #1 comdat align 2 {
  %3 = alloca ptr, align 8
  %4 = alloca ptr, align 8
  store ptr %0, ptr %3, align 8
  store ptr %1, ptr %4, align 8
  %5 = load ptr, ptr %3, align 8
  %6 = load ptr, ptr %4, align 8
  call void @_ZN3gmx16GromacsExceptionC2ERKNS_20ExceptionInitializerE(ptr noundef nonnull align 8 dereferenceable(24) %5, ptr noundef nonnull align 8 dereferenceable(56) %6)
  store ptr getelementptr inbounds inrange(-16, 32) ({ [6 x ptr] }, ptr @_ZTVN3gmx14UserInputErrorE, i32 0, i32 0, i32 2), ptr %5, align 8
  ret void
}

; Function Attrs: mustprogress nounwind uwtable
define linkonce_odr void @_ZNSt6vectorINSt15__exception_ptr13exception_ptrESaIS1_EEC2Ev(ptr noundef nonnull align 8 dereferenceable(24) %0) unnamed_addr #0 comdat align 2 {
  %2 = alloca ptr, align 8
  store ptr %0, ptr %2, align 8
  %3 = load ptr, ptr %2, align 8
  call void @_ZNSt12_Vector_baseINSt15__exception_ptr13exception_ptrESaIS1_EEC2Ev(ptr noundef nonnull align 8 dereferenceable(24) %3) #11
  ret void
}

; Function Attrs: mustprogress nounwind uwtable
define linkonce_odr void @_ZN3gmx13ExceptionInfoINS_22ExceptionInfoLocation_ENS_13ThrowLocationEED2Ev(ptr noundef nonnull align 8 dereferenceable(32) %0) unnamed_addr #0 comdat align 2 {
  %2 = alloca ptr, align 8
  store ptr %0, ptr %2, align 8
  %3 = load ptr, ptr %2, align 8
  call void @_ZN3gmx8internal14IExceptionInfoD2Ev(ptr noundef nonnull align 8 dereferenceable(8) %3) #11
  ret void
}

; Function Attrs: mustprogress nounwind uwtable
define linkonce_odr void @_ZN3gmx13ExceptionInfoINS_22ExceptionInfoLocation_ENS_13ThrowLocationEEC2ERKS2_(ptr noundef nonnull align 8 dereferenceable(32) %0, ptr noundef nonnull align 8 dereferenceable(20) %1) unnamed_addr #0 comdat align 2 {
  %3 = alloca ptr, align 8
  %4 = alloca ptr, align 8
  store ptr %0, ptr %3, align 8
  store ptr %1, ptr %4, align 8
  %5 = load ptr, ptr %3, align 8
  call void @_ZN3gmx8internal14IExceptionInfoC2Ev(ptr noundef nonnull align 8 dereferenceable(8) %5) #11
  store ptr getelementptr inbounds inrange(-16, 16) ({ [4 x ptr] }, ptr @_ZTVN3gmx13ExceptionInfoINS_22ExceptionInfoLocation_ENS_13ThrowLocationEEE, i32 0, i32 0, i32 2), ptr %5, align 8
  %6 = getelementptr inbounds %"class.gmx::ExceptionInfo", ptr %5, i32 0, i32 1
  %7 = load ptr, ptr %4, align 8
  call void @llvm.memcpy.p0.p0.i64(ptr align 8 %6, ptr align 8 %7, i64 24, i1 false)
  ret void
}

; Function Attrs: mustprogress nounwind uwtable
define linkonce_odr void @_ZN3gmx13ThrowLocationC2EPKcS2_i(ptr noundef nonnull align 8 dereferenceable(20) %0, ptr noundef %1, ptr noundef %2, i32 noundef %3) unnamed_addr #0 comdat align 2 {
  %5 = alloca ptr, align 8
  %6 = alloca ptr, align 8
  %7 = alloca ptr, align 8
  %8 = alloca i32, align 4
  store ptr %0, ptr %5, align 8
  store ptr %1, ptr %6, align 8
  store ptr %2, ptr %7, align 8
  store i32 %3, ptr %8, align 4
  %9 = load ptr, ptr %5, align 8
  %10 = getelementptr inbounds %"struct.gmx::ThrowLocation", ptr %9, i32 0, i32 0
  %11 = load ptr, ptr %6, align 8
  store ptr %11, ptr %10, align 8
  %12 = getelementptr inbounds %"struct.gmx::ThrowLocation", ptr %9, i32 0, i32 1
  %13 = load ptr, ptr %7, align 8
  store ptr %13, ptr %12, align 8
  %14 = getelementptr inbounds %"struct.gmx::ThrowLocation", ptr %9, i32 0, i32 2
  %15 = load i32, ptr %8, align 4
  store i32 %15, ptr %14, align 8
  ret void
}

; Function Attrs: mustprogress uwtable
define linkonce_odr void @_ZN3gmx22InconsistentInputErrorC2ERKNS_20ExceptionInitializerE(ptr noundef nonnull align 8 dereferenceable(24) %0, ptr noundef nonnull align 8 dereferenceable(56) %1) unnamed_addr #1 comdat align 2 {
  %3 = alloca ptr, align 8
  %4 = alloca ptr, align 8
  store ptr %0, ptr %3, align 8
  store ptr %1, ptr %4, align 8
  %5 = load ptr, ptr %3, align 8
  %6 = load ptr, ptr %4, align 8
  call void @_ZN3gmx14UserInputErrorC2ERKNS_20ExceptionInitializerE(ptr noundef nonnull align 8 dereferenceable(24) %5, ptr noundef nonnull align 8 dereferenceable(56) %6)
  store ptr getelementptr inbounds inrange(-16, 32) ({ [6 x ptr] }, ptr @_ZTVN3gmx22InconsistentInputErrorE, i32 0, i32 0, i32 2), ptr %5, align 8
  ret void
}

; Function Attrs: mustprogress uwtable
define linkonce_odr void @_ZN3gmx20ExceptionInitializerC2ERKNSt7__cxx1112basic_stringIcSt11char_traitsIcESaIcEEE(ptr noundef nonnull align 8 dereferenceable(56) %0, ptr noundef nonnull align 8 dereferenceable(32) %1) unnamed_addr #1 comdat align 2 {
  %3 = alloca ptr, align 8
  %4 = alloca ptr, align 8
  store ptr %0, ptr %3, align 8
  store ptr %1, ptr %4, align 8
  %5 = load ptr, ptr %3, align 8
  %6 = getelementptr inbounds %"class.gmx::ExceptionInitializer", ptr %5, i32 0, i32 0
  %7 = load ptr, ptr %4, align 8
  call void @_ZNSt7__cxx1112basic_stringIcSt11char_traitsIcESaIcEEC1ERKS4_(ptr noundef nonnull align 8 dereferenceable(32) %6, ptr noundef nonnull align 8 dereferenceable(32) %7)
  %8 = getelementptr inbounds %"class.gmx::ExceptionInitializer", ptr %5, i32 0, i32 1
  call void @_ZNSt6vectorINSt15__exception_ptr13exception_ptrESaIS1_EEC2Ev(ptr noundef nonnull align 8 dereferenceable(24) %8) #11
  ret void
}

; Function Attrs: mustprogress nounwind uwtable
define linkonce_odr noundef nonnull align 8 dereferenceable(32) ptr @_ZNK3gmx20SelectionTreeElement4nameB5cxx11Ev(ptr noundef nonnull align 8 dereferenceable(168) %0) #0 comdat align 2 {
  %2 = alloca ptr, align 8
  store ptr %0, ptr %2, align 8
  %3 = load ptr, ptr %2, align 8
  %4 = getelementptr inbounds %"class.gmx::SelectionTreeElement", ptr %3, i32 0, i32 9
  ret ptr %4
}

; Function Attrs: mustprogress uwtable
define internal void @"_ZZN3gmx20SelectionTreeElement15checkIndexGroupEiENK3$_0clEv"(ptr noundef nonnull align 1 dereferenceable(1) %0) #1 align 2 {
  %2 = alloca ptr, align 8
  store ptr %0, ptr %2, align 8
  call void @_ZN3gmx8internal13assertHandlerEPKcS2_S2_S2_i(ptr noundef @.str.37, ptr noundef @.str.38, ptr noundef @"__PRETTY_FUNCTION__._ZZN3gmx20SelectionTreeElement15checkIndexGroupEiENK3$_0clEv", ptr noundef @.str.20, i32 noundef 457) #14
  unreachable
}

; Function Attrs: mustprogress uwtable
define void @_ZN3gmx20SelectionTreeElement15checkIndexGroupEi(ptr noundef nonnull align 8 dereferenceable(168) %0, i32 noundef %1) #1 align 2 personality ptr @__gxx_personality_v0 {
  %3 = alloca ptr, align 8
  %4 = alloca i32, align 4
  %5 = alloca %class.anon.23, align 1
  %6 = alloca %"class.std::__cxx11::basic_string", align 8
  %7 = alloca %"class.gmx::InconsistentInputError", align 8
  %8 = alloca %"class.gmx::ExceptionInitializer", align 8
  %9 = alloca ptr, align 8
  %10 = alloca i32, align 4
  %11 = alloca %"class.gmx::ExceptionInfo", align 8
  %12 = alloca %"struct.gmx::ThrowLocation", align 8
  %13 = alloca i1, align 1
  store ptr %0, ptr %3, align 8
  store i32 %1, ptr %4, align 4
  %14 = load ptr, ptr %3, align 8
  %15 = getelementptr inbounds %"class.gmx::SelectionTreeElement", ptr %14, i32 0, i32 0
  %16 = load i32, ptr %15, align 8
  %17 = icmp eq i32 %16, 0
  br i1 %17, label %18, label %24

18:                                               ; preds = %2
  %19 = getelementptr inbounds %"class.gmx::SelectionTreeElement", ptr %14, i32 0, i32 1
  %20 = getelementptr inbounds %struct.gmx_ana_selvalue_t, ptr %19, i32 0, i32 0
  %21 = load i32, ptr %20, align 8
  %22 = icmp eq i32 %21, 5
  br i1 %22, label %23, label %24

23:                                               ; preds = %18
  br label %25

24:                                               ; preds = %18, %2
  call void @"_ZZN3gmx20SelectionTreeElement15checkIndexGroupEiENK3$_0clEv"(ptr noundef nonnull align 1 dereferenceable(1) %5)
  br label %25

25:                                               ; preds = %24, %23
  %26 = getelementptr inbounds %"class.gmx::SelectionTreeElement", ptr %14, i32 0, i32 4
  %27 = load i32, ptr %4, align 4
  %28 = call noundef zeroext i1 @_Z25gmx_ana_index_check_rangeP15gmx_ana_index_ti(ptr noundef %26, i32 noundef %27)
  br i1 %28, label %61, label %29

29:                                               ; preds = %25
  %30 = call noundef nonnull align 8 dereferenceable(32) ptr @_ZNK3gmx20SelectionTreeElement4nameB5cxx11Ev(ptr noundef nonnull align 8 dereferenceable(168) %14)
  %31 = call noundef ptr @_ZNKSt7__cxx1112basic_stringIcSt11char_traitsIcESaIcEE5c_strEv(ptr noundef nonnull align 8 dereferenceable(32) %30) #11
  %32 = load i32, ptr %4, align 4
  call void (ptr, ptr, ...) @_ZN3gmx12formatStringB5cxx11EPKcz(ptr dead_on_unwind writable sret(%"class.std::__cxx11::basic_string") align 8 %6, ptr noundef @.str.36, ptr noundef %31, i32 noundef %32)
  store i1 true, ptr %13, align 1
  %33 = call ptr @__cxa_allocate_exception(i64 24) #11
  invoke void @_ZN3gmx20ExceptionInitializerC2ERKNSt7__cxx1112basic_stringIcSt11char_traitsIcESaIcEEE(ptr noundef nonnull align 8 dereferenceable(56) %8, ptr noundef nonnull align 8 dereferenceable(32) %6)
          to label %34 unwind label %39

34:                                               ; preds = %29
  invoke void @_ZN3gmx22InconsistentInputErrorC2ERKNS_20ExceptionInitializerE(ptr noundef nonnull align 8 dereferenceable(24) %7, ptr noundef nonnull align 8 dereferenceable(56) %8)
          to label %35 unwind label %43

35:                                               ; preds = %34
  invoke void @_ZN3gmx13ThrowLocationC2EPKcS2_i(ptr noundef nonnull align 8 dereferenceable(20) %12, ptr noundef @__PRETTY_FUNCTION__._ZN3gmx20SelectionTreeElement15checkIndexGroupEi, ptr noundef @.str.20, i32 noundef 466)
          to label %36 unwind label %47

36:                                               ; preds = %35
  invoke void @_ZN3gmx13ExceptionInfoINS_22ExceptionInfoLocation_ENS_13ThrowLocationEEC2ERKS2_(ptr noundef nonnull align 8 dereferenceable(32) %11, ptr noundef nonnull align 8 dereferenceable(20) %12)
          to label %37 unwind label %47

37:                                               ; preds = %36
  invoke void @_ZN3gmxlsINS_22InconsistentInputErrorENS_22ExceptionInfoLocation_ENS_13ThrowLocationEEENSt9enable_ifIXsr3std10is_base_ofINS_16GromacsExceptionET_EE5valueES6_E4typeES6_RKNS_13ExceptionInfoIT0_T1_EE(ptr dead_on_unwind writable sret(%"class.gmx::InconsistentInputError") align 8 %33, ptr noundef %7, ptr noundef nonnull align 8 dereferenceable(32) %11)
          to label %38 unwind label %51

38:                                               ; preds = %37
  store i1 false, ptr %13, align 1
  invoke void @__cxa_throw(ptr %33, ptr @_ZTIN3gmx22InconsistentInputErrorE, ptr @_ZN3gmx22InconsistentInputErrorD2Ev) #14
          to label %67 unwind label %51

39:                                               ; preds = %29
  %40 = landingpad { ptr, i32 }
          cleanup
  %41 = extractvalue { ptr, i32 } %40, 0
  store ptr %41, ptr %9, align 8
  %42 = extractvalue { ptr, i32 } %40, 1
  store i32 %42, ptr %10, align 4
  br label %57

43:                                               ; preds = %34
  %44 = landingpad { ptr, i32 }
          cleanup
  %45 = extractvalue { ptr, i32 } %44, 0
  store ptr %45, ptr %9, align 8
  %46 = extractvalue { ptr, i32 } %44, 1
  store i32 %46, ptr %10, align 4
  br label %56

47:                                               ; preds = %36, %35
  %48 = landingpad { ptr, i32 }
          cleanup
  %49 = extractvalue { ptr, i32 } %48, 0
  store ptr %49, ptr %9, align 8
  %50 = extractvalue { ptr, i32 } %48, 1
  store i32 %50, ptr %10, align 4
  br label %55

51:                                               ; preds = %38, %37
  %52 = landingpad { ptr, i32 }
          cleanup
  %53 = extractvalue { ptr, i32 } %52, 0
  store ptr %53, ptr %9, align 8
  %54 = extractvalue { ptr, i32 } %52, 1
  store i32 %54, ptr %10, align 4
  call void @_ZN3gmx13ExceptionInfoINS_22ExceptionInfoLocation_ENS_13ThrowLocationEED2Ev(ptr noundef nonnull align 8 dereferenceable(32) %11) #11
  br label %55

55:                                               ; preds = %51, %47
  call void @_ZN3gmx22InconsistentInputErrorD2Ev(ptr noundef nonnull align 8 dereferenceable(24) %7) #11
  br label %56

56:                                               ; preds = %55, %43
  call void @_ZN3gmx20ExceptionInitializerD2Ev(ptr noundef nonnull align 8 dereferenceable(56) %8) #11
  br label %57

57:                                               ; preds = %56, %39
  %58 = load i1, ptr %13, align 1
  br i1 %58, label %59, label %60

59:                                               ; preds = %57
  call void @__cxa_free_exception(ptr %33) #11
  br label %60

60:                                               ; preds = %59, %57
  call void @_ZNSt7__cxx1112basic_stringIcSt11char_traitsIcESaIcEED1Ev(ptr noundef nonnull align 8 dereferenceable(32) %6) #11
  br label %62

61:                                               ; preds = %25
  ret void

62:                                               ; preds = %60
  %63 = load ptr, ptr %9, align 8
  %64 = load i32, ptr %10, align 4
  %65 = insertvalue { ptr, i32 } poison, ptr %63, 0
  %66 = insertvalue { ptr, i32 } %65, i32 %64, 1
  resume { ptr, i32 } %66

67:                                               ; preds = %38
  unreachable
}