; Function Attrs: mustprogress uwtable
define void @_ZN3gmx20SelectionTreeElement15checkIndexGroupEi(ptr noundef nonnull align 8 dereferenceable(168) %0, i32 noundef %1) local_unnamed_addr #1 align 2 personality ptr @__gxx_personality_v0 {
  %3 = alloca %"class.std::__cxx11::basic_string", align 8
  %4 = alloca %"class.gmx::InconsistentInputError", align 8
  %5 = alloca %"class.gmx::ExceptionInitializer", align 8
  %6 = alloca %"class.gmx::ExceptionInfo", align 8
  %7 = load i32, ptr %0, align 8
  %8 = icmp eq i32 %7, 0
  %9 = getelementptr inbounds i8, ptr %0, i64 8
  %10 = load i32, ptr %9, align 8
  %11 = icmp eq i32 %10, 5
  %or.cond = select i1 %8, i1 %11, i1 false
  br i1 %or.cond, label %13, label %12

12:                                               ; preds = %2
  tail call void @_ZN3gmx8internal13assertHandlerEPKcS2_S2_S2_i(ptr noundef nonnull @.str.37, ptr noundef nonnull @.str.38, ptr noundef nonnull @"__PRETTY_FUNCTION__._ZZN3gmx20SelectionTreeElement15checkIndexGroupEiENK3$_0clEv", ptr noundef nonnull @.str.20, i32 noundef 457) #19
  unreachable

13:                                               ; preds = %2
  %14 = getelementptr inbounds i8, ptr %0, i64 48
  %15 = tail call noundef zeroext i1 @_Z25gmx_ana_index_check_rangeP15gmx_ana_index_ti(ptr noundef nonnull %14, i32 noundef %1)
  br i1 %15, label %31, label %16

16:                                               ; preds = %13
  %17 = getelementptr inbounds i8, ptr %0, i64 128
  %18 = tail call noundef ptr @_ZNKSt7__cxx1112basic_stringIcSt11char_traitsIcESaIcEE5c_strEv(ptr noundef nonnull align 8 dereferenceable(32) %17) #17
  call void (ptr, ptr, ...) @_ZN3gmx12formatStringB5cxx11EPKcz(ptr dead_on_unwind nonnull writable sret(%"class.std::__cxx11::basic_string") align 8 %3, ptr noundef nonnull @.str.36, ptr noundef %18, i32 noundef %1)
  %19 = call ptr @__cxa_allocate_exception(i64 24) #17
  invoke void @_ZNSt7__cxx1112basic_stringIcSt11char_traitsIcESaIcEEC1ERKS4_(ptr noundef nonnull align 8 dereferenceable(32) %5, ptr noundef nonnull align 8 dereferenceable(32) %3)
          to label %20 unwind label %.thread

20:                                               ; preds = %16
  %21 = getelementptr inbounds i8, ptr %5, i64 32
  call void @llvm.memset.p0.i64(ptr noundef nonnull align 8 dereferenceable(24) %21, i8 0, i64 24, i1 false)
  invoke void @_ZN3gmx16GromacsExceptionC2ERKNS_20ExceptionInitializerE(ptr noundef nonnull align 8 dereferenceable(24) %4, ptr noundef nonnull align 8 dereferenceable(56) %5)
          to label %22 unwind label %.thread17

22:                                               ; preds = %20
  store ptr getelementptr inbounds inrange(-16, 32) ({ [6 x ptr] }, ptr @_ZTVN3gmx22InconsistentInputErrorE, i64 0, i32 0, i64 2), ptr %4, align 8
  store ptr getelementptr inbounds inrange(-16, 16) ({ [4 x ptr] }, ptr @_ZTVN3gmx13ExceptionInfoINS_22ExceptionInfoLocation_ENS_13ThrowLocationEEE, i64 0, i32 0, i64 2), ptr %6, align 8
  %23 = getelementptr inbounds i8, ptr %6, i64 8
  store ptr @__PRETTY_FUNCTION__._ZN3gmx20SelectionTreeElement15checkIndexGroupEi, ptr %23, align 8
  %.sroa.2.0..sroa_idx = getelementptr inbounds i8, ptr %6, i64 16
  store ptr @.str.20, ptr %.sroa.2.0..sroa_idx, align 8
  %.sroa.3.0..sroa_idx = getelementptr inbounds i8, ptr %6, i64 24
  store i32 466, ptr %.sroa.3.0..sroa_idx, align 8
  invoke void @_ZN3gmxlsINS_22InconsistentInputErrorENS_22ExceptionInfoLocation_ENS_13ThrowLocationEEENSt9enable_ifIXsr3std10is_base_ofINS_16GromacsExceptionET_EE5valueES6_E4typeES6_RKNS_13ExceptionInfoIT0_T1_EE(ptr dead_on_unwind writable sret(%"class.gmx::InconsistentInputError") align 8 %19, ptr noundef nonnull %4, ptr noundef nonnull align 8 dereferenceable(32) %6)
          to label %24 unwind label %27

24:                                               ; preds = %22
  invoke void @__cxa_throw(ptr %19, ptr nonnull @_ZTIN3gmx22InconsistentInputErrorE, ptr nonnull @_ZN3gmx22InconsistentInputErrorD2Ev) #19
          to label %32 unwind label %27

.thread:                                          ; preds = %16
  %25 = landingpad { ptr, i32 }
          cleanup
  br label %29

.thread17:                                        ; preds = %20
  %26 = landingpad { ptr, i32 }
          cleanup
  call void @_ZN3gmx20ExceptionInitializerD2Ev(ptr noundef nonnull align 8 dereferenceable(56) %5) #17
  br label %29

27:                                               ; preds = %22, %24
  %.0 = phi i1 [ false, %24 ], [ true, %22 ]
  %28 = landingpad { ptr, i32 }
          cleanup
  call void @_ZN3gmx8internal14IExceptionInfoD2Ev(ptr noundef nonnull align 8 dereferenceable(8) %6) #17
  call void @_ZN3gmx22InconsistentInputErrorD2Ev(ptr noundef nonnull align 8 dereferenceable(24) %4) #17
  call void @_ZN3gmx20ExceptionInitializerD2Ev(ptr noundef nonnull align 8 dereferenceable(56) %5) #17
  br i1 %.0, label %29, label %30

29:                                               ; preds = %.thread17, %.thread, %27
  %.pn.pn16 = phi { ptr, i32 } [ %25, %.thread ], [ %28, %27 ], [ %26, %.thread17 ]
  call void @__cxa_free_exception(ptr %19) #17
  br label %30

30:                                               ; preds = %29, %27
  %.pn.pn15 = phi { ptr, i32 } [ %.pn.pn16, %29 ], [ %28, %27 ]
  call void @_ZNSt7__cxx1112basic_stringIcSt11char_traitsIcESaIcEED1Ev(ptr noundef nonnull align 8 dereferenceable(32) %3) #17
  resume { ptr, i32 } %.pn.pn15

31:                                               ; preds = %13
  ret void

32:                                               ; preds = %24
  unreachable
}